target datalayout = "e-m:e-p270:32:32-p271:32:32-p272:64:64-i64:64-i128:128-f80:128-n8:16:32:64-S128"
target triple = "x86_64-pc-linux-gnu"

%struct.IndexAmRoutine = type { i32, i16, i16, i16, i8, i8, i8, i8, i8, i8, i8, i8, i8, i8, i8, i8, i8, i8, i8, i8, i8, i32, ptr, ptr, ptr, ptr, ptr, ptr, ptr, ptr, ptr, ptr, ptr, ptr, ptr, ptr, ptr, ptr, ptr, ptr, ptr, ptr, ptr, ptr, ptr, ptr, ptr, ptr }

@.str.1 = private unnamed_addr constant [8 x i8] c"amapi.c\00", align 1
@.str.6 = private unnamed_addr constant [55 x i8] c"could not translate strategy number %d for index AM %u\00", align 1
@__func__.IndexAmTranslateStrategy = private unnamed_addr constant [25 x i8] c"IndexAmTranslateStrategy\00", align 1

; Function Attrs: nounwind uwtable
define dso_local i32 @IndexAmTranslateStrategy(i16 noundef zeroext %0, i32 noundef %1, i32 noundef %2, i32 noundef %3, i1 noundef zeroext %4) #0 {
  %6 = alloca i16, align 2
  %7 = alloca i32, align 4
  %8 = alloca i32, align 4
  %9 = alloca i32, align 4
  %10 = alloca i8, align 1
  %11 = alloca i32, align 4
  %12 = alloca ptr, align 8
  store i16 %0, ptr %6, align 2
  store i32 %1, ptr %7, align 4
  store i32 %2, ptr %8, align 4
  store i32 %3, ptr %9, align 4
  %13 = zext i1 %4 to i8
  store i8 %13, ptr %10, align 1
  call void @llvm.lifetime.start.p0(i64 4, ptr %11) #5
  call void @llvm.lifetime.start.p0(i64 8, ptr %12) #5
  %14 = load i32, ptr %7, align 4
  %15 = call ptr @GetIndexAmRoutineByAmId(i32 noundef %14, i1 noundef zeroext false)
  store ptr %15, ptr %12, align 8
  %16 = load ptr, ptr %12, align 8
  %17 = getelementptr inbounds nuw %struct.IndexAmRoutine, ptr %16, i32 0, i32 46
  %18 = load ptr, ptr %17, align 8
  %19 = icmp ne ptr %18, null
  br i1 %19, label %20, label %28

20:                                               ; preds = %5
  %21 = load ptr, ptr %12, align 8
  %22 = getelementptr inbounds nuw %struct.IndexAmRoutine, ptr %21, i32 0, i32 46
  %23 = load ptr, ptr %22, align 8
  %24 = load i16, ptr %6, align 2
  %25 = load i32, ptr %8, align 4
  %26 = load i32, ptr %9, align 4
  %27 = call i32 %23(i16 noundef zeroext %24, i32 noundef %25, i32 noundef %26)
  store i32 %27, ptr %11, align 4
  br label %29

28:                                               ; preds = %5
  store i32 0, ptr %11, align 4
  br label %29

29:                                               ; preds = %28, %20
  %30 = load i8, ptr %10, align 1, !range !4, !noundef !5
  %31 = trunc i8 %30 to i1
  br i1 %31, label %49, label %32

32:                                               ; preds = %29
  %33 = load i32, ptr %11, align 4
  %34 = icmp eq i32 %33, 0
  br i1 %34, label %35, label %49

35:                                               ; preds = %32
  br label %36

36:                                               ; preds = %35
  br i1 true, label %37, label %39

37:                                               ; preds = %36
  %38 = call zeroext i1 @errstart_cold(i32 noundef 21, ptr noundef null) #6
  br i1 %38, label %41, label %46

39:                                               ; preds = %36
  %40 = call zeroext i1 @errstart(i32 noundef 21, ptr noundef null)
  br i1 %40, label %41, label %46

41:                                               ; preds = %39, %37
  %42 = load i16, ptr %6, align 2
  %43 = zext i16 %42 to i32
  %44 = load i32, ptr %7, align 4
  %45 = call i32 (ptr, ...) @errmsg_internal(ptr noundef @.str.6, i32 noundef %43, i32 noundef %44)
  call void @errfinish(ptr noundef @.str.1, i32 noundef 130, ptr noundef @__func__.IndexAmTranslateStrategy)
  br label %46

46:                                               ; preds = %41, %39, %37
  unreachable

47:                                               ; No predecessors!
  br label %48

48:                                               ; preds = %47
  br label %49

49:                                               ; preds = %48, %32, %29
  %50 = load i32, ptr %11, align 4
  call void @llvm.lifetime.end.p0(i64 8, ptr %12) #5
  call void @llvm.lifetime.end.p0(i64 4, ptr %11) #5
  ret i32 %50
}